target datalayout = "e-m:e-p270:32:32-p271:32:32-p272:64:64-i64:64-i128:128-f80:128-n8:16:32:64-S128"
target triple = "x86_64-pc-linux-gnu"

%struct.ssl3_enc_method = type { ptr, ptr, ptr }
%struct.ssl_st = type { i32, i16, i16, ptr, ptr, ptr, ptr, ptr, i32, i32, ptr, ptr, i32, i32, ptr, ptr, ptr, ptr, ptr, ptr, ptr, ptr, i32, i32, [32 x i8], ptr, ptr, ptr, ptr, ptr, ptr, ptr, i64, %struct.crypto_ex_data_st, ptr, i32, i32, i32, i32, i16, ptr, i32, i64, ptr, ptr, ptr, ptr, ptr, ptr, i32, i32, ptr, ptr, i8, i8, i32 }
%struct.crypto_ex_data_st = type { ptr }
%struct.ssl3_state_st = type { [8 x i8], [8 x i8], [32 x i8], [32 x i8], i8, i8, %struct.ssl3_buffer_st, %struct.ssl3_buffer_st, %struct.ssl3_record_st, i8, i32, i32, i32, i32, ptr, ptr, %struct.env_md_ctx_st, %struct.env_md_ctx_st, i8, i32, [2 x i8], i32, i8, i8, ptr, ptr, ptr, %struct.anon, [64 x i8], i8, [64 x i8], i8, i32, i32, ptr, i64, ptr, i64, i8, [64 x i8] }
%struct.ssl3_buffer_st = type { ptr, i16, i16, i16 }
%struct.ssl3_record_st = type { i8, i16, ptr }
%struct.env_md_ctx_st = type { ptr, ptr, ptr, ptr }
%struct.anon = type { [64 x i8], i32, [64 x i8], i32, i64, i32, ptr, i32, i32, %union.anon, %union.anon.0, i8, i32, ptr, ptr, i64, ptr, i8, i8, i8, i8, i32, i8, ptr, i64, i8, ptr, i8, i8, i8, %struct.ssl_ecdh_ctx_st, ptr, i16 }
%union.anon = type { i32 }
%union.anon.0 = type { i16 }
%struct.ssl_ecdh_ctx_st = type { ptr, ptr }

@.str.2 = private unnamed_addr constant [23 x i8] c"extended master secret\00", align 1
@.str.3 = private unnamed_addr constant [14 x i8] c"master secret\00", align 1

; Function Attrs: nounwind uwtable
define hidden i32 @tls1_generate_master_secret(ptr noundef %0, ptr noundef %1, ptr noundef %2, i64 noundef %3) #0 {
  %5 = alloca i32, align 4
  %6 = alloca ptr, align 8
  %7 = alloca ptr, align 8
  %8 = alloca ptr, align 8
  %9 = alloca i64, align 8
  %10 = alloca [64 x i8], align 16
  %11 = alloca i32, align 4
  %12 = alloca i32, align 4
  store ptr %0, ptr %6, align 8, !tbaa !6
  store ptr %1, ptr %7, align 8, !tbaa !57
  store ptr %2, ptr %8, align 8, !tbaa !57
  store i64 %3, ptr %9, align 8, !tbaa !53
  %13 = load ptr, ptr %6, align 8, !tbaa !6
  %14 = getelementptr inbounds nuw %struct.ssl_st, ptr %13, i32 0, i32 14
  %15 = load ptr, ptr %14, align 8, !tbaa !14
  %16 = getelementptr inbounds nuw %struct.ssl3_state_st, ptr %15, i32 0, i32 27
  %17 = getelementptr inbounds nuw %struct.anon, ptr %16, i32 0, i32 25
  %18 = load i8, ptr %17, align 8, !tbaa !75
  %19 = icmp ne i8 %18, 0
  br i1 %19, label %20, label %49

20:                                               ; preds = %4
  call void @llvm.lifetime.start.p0(i64 64, ptr %10) #7
  call void @llvm.lifetime.start.p0(i64 4, ptr %11) #7
  %21 = load ptr, ptr %6, align 8, !tbaa !6
  %22 = getelementptr inbounds [64 x i8], ptr %10, i64 0, i64 0
  %23 = call i32 @tls1_handshake_digest(ptr noundef %21, ptr noundef %22, i64 noundef 64)
  store i32 %23, ptr %11, align 4, !tbaa !11
  %24 = load i32, ptr %11, align 4, !tbaa !11
  %25 = icmp eq i32 %24, -1
  br i1 %25, label %26, label %27

26:                                               ; preds = %20
  store i32 0, ptr %5, align 4
  store i32 1, ptr %12, align 4
  br label %46

27:                                               ; preds = %20
  %28 = load ptr, ptr %6, align 8, !tbaa !6
  %29 = getelementptr inbounds nuw %struct.ssl_st, ptr %28, i32 0, i32 14
  %30 = load ptr, ptr %29, align 8, !tbaa !14
  %31 = getelementptr inbounds nuw %struct.ssl3_state_st, ptr %30, i32 0, i32 26
  %32 = load ptr, ptr %31, align 8, !tbaa !68
  %33 = getelementptr inbounds nuw %struct.ssl3_enc_method, ptr %32, i32 0, i32 0
  %34 = load ptr, ptr %33, align 8, !tbaa !69
  %35 = load ptr, ptr %6, align 8, !tbaa !6
  %36 = load ptr, ptr %7, align 8, !tbaa !57
  %37 = load ptr, ptr %8, align 8, !tbaa !57
  %38 = load i64, ptr %9, align 8, !tbaa !53
  %39 = getelementptr inbounds [64 x i8], ptr %10, i64 0, i64 0
  %40 = load i32, ptr %11, align 4, !tbaa !11
  %41 = sext i32 %40 to i64
  %42 = call i32 %34(ptr noundef %35, ptr noundef %36, i64 noundef 48, ptr noundef %37, i64 noundef %38, ptr noundef @.str.2, i64 noundef 22, ptr noundef %39, i64 noundef %41, ptr noundef null, i64 noundef 0)
  %43 = icmp ne i32 %42, 0
  br i1 %43, label %45, label %44

44:                                               ; preds = %27
  store i32 0, ptr %5, align 4
  store i32 1, ptr %12, align 4
  br label %46

45:                                               ; preds = %27
  store i32 0, ptr %12, align 4
  br label %46

46:                                               ; preds = %45, %44, %26
  call void @llvm.lifetime.end.p0(i64 4, ptr %11) #7
  call void @llvm.lifetime.end.p0(i64 64, ptr %10) #7
  %47 = load i32, ptr %12, align 4
  switch i32 %47, label %78 [
    i32 0, label %48
    i32 1, label %76
  ]

48:                                               ; preds = %46
  br label %75

49:                                               ; preds = %4
  %50 = load ptr, ptr %6, align 8, !tbaa !6
  %51 = getelementptr inbounds nuw %struct.ssl_st, ptr %50, i32 0, i32 14
  %52 = load ptr, ptr %51, align 8, !tbaa !14
  %53 = getelementptr inbounds nuw %struct.ssl3_state_st, ptr %52, i32 0, i32 26
  %54 = load ptr, ptr %53, align 8, !tbaa !68
  %55 = getelementptr inbounds nuw %struct.ssl3_enc_method, ptr %54, i32 0, i32 0
  %56 = load ptr, ptr %55, align 8, !tbaa !69
  %57 = load ptr, ptr %6, align 8, !tbaa !6
  %58 = load ptr, ptr %7, align 8, !tbaa !57
  %59 = load ptr, ptr %8, align 8, !tbaa !57
  %60 = load i64, ptr %9, align 8, !tbaa !53
  %61 = load ptr, ptr %6, align 8, !tbaa !6
  %62 = getelementptr inbounds nuw %struct.ssl_st, ptr %61, i32 0, i32 14
  %63 = load ptr, ptr %62, align 8, !tbaa !14
  %64 = getelementptr inbounds nuw %struct.ssl3_state_st, ptr %63, i32 0, i32 3
  %65 = getelementptr inbounds [32 x i8], ptr %64, i64 0, i64 0
  %66 = load ptr, ptr %6, align 8, !tbaa !6
  %67 = getelementptr inbounds nuw %struct.ssl_st, ptr %66, i32 0, i32 14
  %68 = load ptr, ptr %67, align 8, !tbaa !14
  %69 = getelementptr inbounds nuw %struct.ssl3_state_st, ptr %68, i32 0, i32 2
  %70 = getelementptr inbounds [32 x i8], ptr %69, i64 0, i64 0
  %71 = call i32 %56(ptr noundef %57, ptr noundef %58, i64 noundef 48, ptr noundef %59, i64 noundef %60, ptr noundef @.str.3, i64 noundef 13, ptr noundef %65, i64 noundef 32, ptr noundef %70, i64 noundef 32)
  %72 = icmp ne i32 %71, 0
  br i1 %72, label %74, label %73

73:                                               ; preds = %49
  store i32 0, ptr %5, align 4
  br label %76

74:                                               ; preds = %49
  br label %75

75:                                               ; preds = %74, %48
  store i32 48, ptr %5, align 4
  br label %76

76:                                               ; preds = %75, %73, %46
  %77 = load i32, ptr %5, align 4
  ret i32 %77

78:                                               ; preds = %46
  unreachable
}