; Function Attrs: nounwind uwtable
define hidden range(i32 0, 49) i32 @tls1_generate_master_secret(ptr noundef %0, ptr noundef %1, ptr noundef %2, i64 noundef %3) local_unnamed_addr #0 {
  %5 = alloca [64 x i8], align 16
  %6 = getelementptr inbounds nuw i8, ptr %0, i64 80
  %7 = load ptr, ptr %6, align 8, !tbaa !6
  %8 = getelementptr inbounds nuw i8, ptr %7, i64 536
  %9 = load i8, ptr %8, align 8, !tbaa !67
  %.not = icmp eq i8 %9, 0
  br i1 %.not, label %20, label %10

10:                                               ; preds = %4
  call void @llvm.lifetime.start.p0(i64 64, ptr nonnull %5) #8
  %11 = call i32 @tls1_handshake_digest(ptr noundef nonnull %0, ptr noundef nonnull %5, i64 noundef 64)
  %12 = icmp eq i32 %11, -1
  br i1 %12, label %.thread, label %13

.thread:                                          ; preds = %10
  call void @llvm.lifetime.end.p0(i64 64, ptr nonnull %5) #8
  br label %28

13:                                               ; preds = %10
  %14 = load ptr, ptr %6, align 8, !tbaa !6
  %15 = getelementptr inbounds nuw i8, ptr %14, i64 280
  %16 = load ptr, ptr %15, align 8, !tbaa !62
  %17 = load ptr, ptr %16, align 8, !tbaa !63
  %18 = sext i32 %11 to i64
  %19 = call i32 %17(ptr noundef nonnull %0, ptr noundef %1, i64 noundef 48, ptr noundef %2, i64 noundef %3, ptr noundef nonnull @.str.2, i64 noundef 22, ptr noundef nonnull %5, i64 noundef %18, ptr noundef null, i64 noundef 0) #8
  %.not20.not = icmp eq i32 %19, 0
  call void @llvm.lifetime.end.p0(i64 64, ptr nonnull %5) #8
  br i1 %.not20.not, label %28, label %27

20:                                               ; preds = %4
  %21 = getelementptr inbounds nuw i8, ptr %7, i64 280
  %22 = load ptr, ptr %21, align 8, !tbaa !62
  %23 = load ptr, ptr %22, align 8, !tbaa !63
  %24 = getelementptr inbounds nuw i8, ptr %7, i64 48
  %25 = getelementptr inbounds nuw i8, ptr %7, i64 16
  %26 = tail call i32 %23(ptr noundef nonnull %0, ptr noundef %1, i64 noundef 48, ptr noundef %2, i64 noundef %3, ptr noundef nonnull @.str.3, i64 noundef 13, ptr noundef nonnull %24, i64 noundef 32, ptr noundef nonnull %25, i64 noundef 32) #8
  %.not19 = icmp eq i32 %26, 0
  br i1 %.not19, label %28, label %27

27:                                               ; preds = %13, %20
  br label %28

28:                                               ; preds = %.thread, %20, %13, %27
  %.1 = phi i32 [ 0, %13 ], [ 48, %27 ], [ 0, %20 ], [ 0, %.thread ]
  ret i32 %.1
}